; Function Attrs: nounwind uwtable
define dso_local noundef ptr @decNumberMinMag(ptr noundef returned %0, ptr noundef captures(address) %1, ptr noundef captures(address) %2, ptr noundef %3) local_unnamed_addr #4 {
  %5 = alloca i32, align 4
  call void @llvm.lifetime.start.p0(i64 4, ptr nonnull %5) #18
  store i32 0, ptr %5, align 4, !tbaa !16
  %6 = call fastcc ptr @decCompareOp(ptr noundef %0, ptr noundef %1, ptr noundef %2, ptr noundef %3, i8 noundef zeroext 8, ptr noundef %5)
  %7 = load i32, ptr %5, align 4, !tbaa !16
  %.not = icmp eq i32 %7, 0
  br i1 %.not, label %19, label %8

8:                                                ; preds = %4
  %9 = and i32 %7, 221
  %.not.i = icmp eq i32 %9, 0
  br i1 %.not.i, label %decStatus.exit, label %10

10:                                               ; preds = %8
  %11 = and i32 %7, 1073741824
  %.not6.i = icmp eq i32 %11, 0
  br i1 %.not6.i, label %14, label %12

12:                                               ; preds = %10
  %13 = and i32 %7, -1073741825
  br label %decStatus.exit

14:                                               ; preds = %10
  %15 = getelementptr inbounds nuw i8, ptr %0, i64 8
  %16 = getelementptr inbounds nuw i8, ptr %0, i64 4
  store i32 0, ptr %16, align 4, !tbaa !9
  store i32 1, ptr %0, align 4, !tbaa !10
  %17 = getelementptr inbounds nuw i8, ptr %0, i64 10
  store i16 0, ptr %17, align 2, !tbaa !11
  store i8 32, ptr %15, align 4, !tbaa !4
  br label %decStatus.exit

decStatus.exit:                                   ; preds = %8, %12, %14
  %.0.i = phi i32 [ %13, %12 ], [ %7, %14 ], [ %7, %8 ]
  %18 = tail call ptr @decContextSetStatus(ptr noundef %3, i32 noundef %.0.i) #18
  br label %19

19:                                               ; preds = %decStatus.exit, %4
  call void @llvm.lifetime.end.p0(i64 4, ptr nonnull %5) #18
  ret ptr %0
}